target datalayout = "e-m:e-p270:32:32-p271:32:32-p272:64:64-i64:64-i128:128-f80:128-n8:16:32:64-S128"
target triple = "x86_64-pc-linux-gnu"

%struct._object = type { %union.anon, ptr }
%union.anon = type { i64 }
%struct.fileio = type { %struct._object, i32, i8, i8, ptr, ptr, ptr }

@PyExc_OSError = external global ptr, align 8

; Function Attrs: nounwind uwtable
define internal i32 @internal_close(ptr noundef %0) #0 {
  %2 = alloca i32, align 4
  %3 = alloca ptr, align 8
  %4 = alloca i32, align 4
  %5 = alloca i32, align 4
  %6 = alloca i32, align 4
  %7 = alloca ptr, align 8
  %8 = alloca i32, align 4
  store ptr %0, ptr %3, align 8, !tbaa !15
  call void @llvm.lifetime.start.p0(i64 4, ptr %4) #9
  store i32 0, ptr %4, align 4, !tbaa !31
  call void @llvm.lifetime.start.p0(i64 4, ptr %5) #9
  store i32 0, ptr %5, align 4, !tbaa !31
  %9 = load ptr, ptr %3, align 8, !tbaa !15
  %10 = getelementptr inbounds nuw %struct.fileio, ptr %9, i32 0, i32 1
  %11 = load i32, ptr %10, align 8, !tbaa !9
  %12 = icmp sge i32 %11, 0
  br i1 %12, label %13, label %29

13:                                               ; preds = %1
  call void @llvm.lifetime.start.p0(i64 4, ptr %6) #9
  %14 = load ptr, ptr %3, align 8, !tbaa !15
  %15 = getelementptr inbounds nuw %struct.fileio, ptr %14, i32 0, i32 1
  %16 = load i32, ptr %15, align 8, !tbaa !9
  store i32 %16, ptr %6, align 4, !tbaa !31
  %17 = load ptr, ptr %3, align 8, !tbaa !15
  %18 = getelementptr inbounds nuw %struct.fileio, ptr %17, i32 0, i32 1
  store i32 -1, ptr %18, align 8, !tbaa !9
  call void @llvm.lifetime.start.p0(i64 8, ptr %7) #9
  %19 = call ptr @PyEval_SaveThread()
  store ptr %19, ptr %7, align 8, !tbaa !53
  %20 = load i32, ptr %6, align 4, !tbaa !31
  %21 = call i32 @close(i32 noundef %20)
  store i32 %21, ptr %4, align 4, !tbaa !31
  %22 = load i32, ptr %4, align 4, !tbaa !31
  %23 = icmp slt i32 %22, 0
  br i1 %23, label %24, label %27

24:                                               ; preds = %13
  %25 = call ptr @__errno_location() #11
  %26 = load i32, ptr %25, align 4, !tbaa !31
  store i32 %26, ptr %5, align 4, !tbaa !31
  br label %27

27:                                               ; preds = %24, %13
  %28 = load ptr, ptr %7, align 8, !tbaa !53
  call void @PyEval_RestoreThread(ptr noundef %28)
  call void @llvm.lifetime.end.p0(i64 8, ptr %7) #9
  call void @llvm.lifetime.end.p0(i64 4, ptr %6) #9
  br label %29

29:                                               ; preds = %27, %1
  %30 = load ptr, ptr %3, align 8, !tbaa !15
  %31 = getelementptr inbounds nuw %struct.fileio, ptr %30, i32 0, i32 4
  %32 = load ptr, ptr %31, align 8, !tbaa !17
  call void @PyMem_Free(ptr noundef %32)
  %33 = load ptr, ptr %3, align 8, !tbaa !15
  %34 = getelementptr inbounds nuw %struct.fileio, ptr %33, i32 0, i32 4
  store ptr null, ptr %34, align 8, !tbaa !17
  %35 = load i32, ptr %4, align 4, !tbaa !31
  %36 = icmp slt i32 %35, 0
  br i1 %36, label %37, label %42

37:                                               ; preds = %29
  %38 = load i32, ptr %5, align 4, !tbaa !31
  %39 = call ptr @__errno_location() #11
  store i32 %38, ptr %39, align 4, !tbaa !31
  %40 = load ptr, ptr @PyExc_OSError, align 8, !tbaa !4
  %41 = call ptr @PyErr_SetFromErrno(ptr noundef %40)
  store i32 -1, ptr %2, align 4
  store i32 1, ptr %8, align 4
  br label %43

42:                                               ; preds = %29
  store i32 0, ptr %2, align 4
  store i32 1, ptr %8, align 4
  br label %43

43:                                               ; preds = %42, %37
  call void @llvm.lifetime.end.p0(i64 4, ptr %5) #9
  call void @llvm.lifetime.end.p0(i64 4, ptr %4) #9
  %44 = load i32, ptr %2, align 4
  ret i32 %44
}